target datalayout = "e-m:e-p270:32:32-p271:32:32-p272:64:64-i64:64-i128:128-f80:128-n8:16:32:64-S128"
target triple = "x86_64-pc-linux-gnu"

; Function Attrs: mustprogress nounwind uwtable
define noundef zeroext i1 @_ZN6casadi10Integrator8grid_outEx(i64 noundef %0) #5 align 2 {
  %2 = alloca i1, align 1
  %3 = alloca i64, align 8
  store i64 %0, ptr %3, align 8
  %4 = load i64, ptr %3, align 8
  %5 = trunc i64 %4 to i32
  switch i32 %5, label %7 [
    i32 0, label %6
    i32 1, label %6
    i32 2, label %6
    i32 6, label %6
  ]

6:                                                ; preds = %1, %1, %1, %1
  store i1 true, ptr %2, align 1
  br label %9

7:                                                ; preds = %1
  br label %8

8:                                                ; preds = %7
  store i1 false, ptr %2, align 1
  br label %9

9:                                                ; preds = %8, %6
  %10 = load i1, ptr %2, align 1
  ret i1 %10
}