; Function Attrs: mustprogress nofree norecurse nosync nounwind willreturn memory(none) uwtable
define noundef zeroext i1 @_ZN6casadi10Integrator8grid_outEx(i64 noundef %0) local_unnamed_addr #5 align 2 {
  %2 = trunc i64 %0 to i32
  %3 = icmp ult i32 %2, 7
  %switch.cast = trunc i64 %0 to i7
  %switch.downshift = lshr i7 -57, %switch.cast
  %4 = and i7 %switch.downshift, 1
  %switch.masked = icmp ne i7 %4, 0
  %.0 = select i1 %3, i1 %switch.masked, i1 false
  ret i1 %.0
}